; Function Attrs: mustprogress nounwind uwtable
define hidden void @_ZN11StringDedup4Stat18report_process_endEv(ptr nocapture noundef nonnull align 8 dereferenceable(248) %0) local_unnamed_addr #2 align 2 {
  %2 = getelementptr inbounds i8, ptr %0, i64 200
  %3 = tail call { i64, i64 } @_ZN29CompositeElapsedCounterSource3nowEv() #7
  %4 = extractvalue { i64, i64 } %3, 0
  %5 = extractvalue { i64, i64 } %3, 1
  %6 = getelementptr inbounds i8, ptr %0, i64 168
  %7 = load i64, ptr %6, align 8
  %8 = sub nsw i64 %4, %7
  %9 = getelementptr inbounds i8, ptr %0, i64 176
  %10 = load i64, ptr %9, align 8
  %11 = sub nsw i64 %5, %10
  %12 = load i64, ptr %2, align 8
  %13 = add nsw i64 %12, %8
  store i64 %13, ptr %2, align 8
  %14 = getelementptr inbounds i8, ptr %0, i64 208
  %15 = load i64, ptr %14, align 8
  %16 = add nsw i64 %15, %11
  store i64 %16, ptr %14, align 8
  %17 = load volatile ptr, ptr getelementptr inbounds (i8, ptr @_ZN16LogTagSetMappingILN6LogTag4typeE148ELS1_114ELS1_0ELS1_0ELS1_0ELS1_0EE7_tagsetE, i64 56), align 8
  %.not.i = icmp eq ptr %17, null
  br i1 %.not.i, label %_ZN11StringDedup4Stat16report_phase_endEPKcP12TimeIntervalI30CompositeCounterRepresentation29CompositeElapsedCounterSourceE.exit, label %18

18:                                               ; preds = %1
  %19 = tail call noundef double @_ZN29CompositeElapsedCounterSource7secondsE7PairRepIllE(i64 %13, i64 %16) #7
  %20 = fmul double %19, 1.000000e+03
  tail call void (ptr, ...) @_ZN7LogImplILN6LogTag4typeE148ELS1_114ELS1_0ELS1_0ELS1_0ELS1_0EE5writeILN8LogLevel4typeE2EEEvPKcz(ptr noundef nonnull @.str.7, ptr noundef nonnull @.str.9, double noundef %20)
  br label %_ZN11StringDedup4Stat16report_phase_endEPKcP12TimeIntervalI30CompositeCounterRepresentation29CompositeElapsedCounterSourceE.exit

_ZN11StringDedup4Stat16report_phase_endEPKcP12TimeIntervalI30CompositeCounterRepresentation29CompositeElapsedCounterSourceE.exit: ; preds = %1, %18
  ret void
}